; Function Attrs: mustprogress uwtable
define hidden void @_ZN2cv15cvtColorLab2BGRERKNS_11_InputArrayERKNS_12_OutputArrayEibb(ptr noundef nonnull align 8 dereferenceable(24) %0, ptr noundef nonnull align 8 dereferenceable(24) %1, i32 noundef %2, i1 noundef zeroext %3, i1 noundef zeroext %4) local_unnamed_addr #5 personality ptr @__gxx_personality_v0 {
  %6 = alloca %"struct.cv::impl::(anonymous namespace)::CvtHelper.2", align 8
  %7 = icmp slt i32 %2, 1
  %spec.store.select = select i1 %7, i32 3, i32 %2
  call void @llvm.lifetime.start.p0(i64 208, ptr nonnull %6) #22
  call fastcc void @_ZN2cv4impl12_GLOBAL__N_19CvtHelperINS1_3SetILi3ELin1ELin1EEENS3_ILi3ELi4ELin1EEENS3_ILi0ELi5ELin1EEELNS1_10SizePolicyE4EEC2ERKNS_11_InputArrayERKNS_12_OutputArrayEi(ptr noundef nonnull align 8 dereferenceable(208) %6, ptr noundef nonnull align 8 dereferenceable(24) %0, ptr noundef nonnull align 8 dereferenceable(24) %1, i32 noundef %spec.store.select)
  %8 = getelementptr inbounds nuw i8, ptr %6, i64 16
  %9 = load ptr, ptr %8, align 8, !tbaa !241
  %10 = getelementptr inbounds nuw i8, ptr %6, i64 80
  %11 = load i64, ptr %10, align 8, !tbaa !223
  %12 = getelementptr inbounds nuw i8, ptr %6, i64 112
  %13 = load ptr, ptr %12, align 8, !tbaa !243
  %14 = getelementptr inbounds nuw i8, ptr %6, i64 176
  %15 = load i64, ptr %14, align 8, !tbaa !223
  %16 = getelementptr inbounds nuw i8, ptr %6, i64 12
  %17 = load i32, ptr %16, align 4, !tbaa !244
  %18 = getelementptr inbounds nuw i8, ptr %6, i64 8
  %19 = load i32, ptr %18, align 8, !tbaa !245
  %20 = getelementptr inbounds nuw i8, ptr %6, i64 192
  %21 = load i32, ptr %20, align 8, !tbaa !246
  invoke void @_ZN2cv3hal11cvtLabtoBGREPKhmPhmiiiibbb(ptr noundef %9, i64 noundef %11, ptr noundef %13, i64 noundef %15, i32 noundef %17, i32 noundef %19, i32 noundef %21, i32 noundef %spec.store.select, i1 noundef zeroext %3, i1 noundef zeroext true, i1 noundef zeroext %4)
          to label %22 unwind label %24

22:                                               ; preds = %5
  %23 = getelementptr inbounds nuw i8, ptr %6, i64 96
  call void @_ZN2cv3MatD1Ev(ptr noundef nonnull align 8 dereferenceable(96) %23) #22
  call void @_ZN2cv3MatD1Ev(ptr noundef nonnull align 8 dereferenceable(208) %6) #22
  call void @llvm.lifetime.end.p0(i64 208, ptr nonnull %6) #22
  ret void

24:                                               ; preds = %5
  %25 = landingpad { ptr, i32 }
          cleanup
  %26 = getelementptr inbounds nuw i8, ptr %6, i64 96
  call void @_ZN2cv3MatD1Ev(ptr noundef nonnull align 8 dereferenceable(96) %26) #22
  call void @_ZN2cv3MatD1Ev(ptr noundef nonnull align 8 dereferenceable(208) %6) #22
  call void @llvm.lifetime.end.p0(i64 208, ptr nonnull %6) #22
  resume { ptr, i32 } %25
}